target datalayout = "e-m:e-p270:32:32-p271:32:32-p272:64:64-i64:64-i128:128-f80:128-n8:16:32:64-S128"
target triple = "x86_64-pc-linux-gnu"

; Function Attrs: mustprogress nounwind uwtable
define internal noundef zeroext i1 @_ZN4llvm10AArch64_AML14isMOVZMovAliasEmii(i64 noundef %0, i32 noundef %1, i32 noundef %2) #0 {
  %4 = alloca i1, align 1
  %5 = alloca i64, align 8
  %6 = alloca i32, align 4
  %7 = alloca i32, align 4
  store i64 %0, ptr %5, align 8
  store i32 %1, ptr %6, align 4
  store i32 %2, ptr %7, align 4
  %8 = load i32, ptr %7, align 4
  %9 = icmp eq i32 %8, 32
  br i1 %9, label %10, label %13

10:                                               ; preds = %3
  %11 = load i64, ptr %5, align 8
  %12 = and i64 %11, 4294967295
  store i64 %12, ptr %5, align 8
  br label %13

13:                                               ; preds = %10, %3
  %14 = load i64, ptr %5, align 8
  %15 = icmp eq i64 %14, 0
  br i1 %15, label %16, label %20

16:                                               ; preds = %13
  %17 = load i32, ptr %6, align 4
  %18 = icmp ne i32 %17, 0
  br i1 %18, label %19, label %20

19:                                               ; preds = %16
  store i1 false, ptr %4, align 1
  br label %28

20:                                               ; preds = %16, %13
  %21 = load i64, ptr %5, align 8
  %22 = load i32, ptr %6, align 4
  %23 = zext i32 %22 to i64
  %24 = shl i64 65535, %23
  %25 = xor i64 %24, -1
  %26 = and i64 %21, %25
  %27 = icmp eq i64 %26, 0
  store i1 %27, ptr %4, align 1
  br label %28

28:                                               ; preds = %20, %19
  %29 = load i1, ptr %4, align 1
  ret i1 %29
}

; Function Attrs: mustprogress nounwind uwtable
define internal noundef zeroext i1 @_ZN4llvm10AArch64_AML17isAnyMOVZMovAliasEmi(i64 noundef %0, i32 noundef %1) #0 {
  %3 = alloca i1, align 1
  %4 = alloca i64, align 8
  %5 = alloca i32, align 4
  %6 = alloca i32, align 4
  store i64 %0, ptr %4, align 8
  store i32 %1, ptr %5, align 4
  store i32 0, ptr %6, align 4
  br label %7

7:                                                ; preds = %22, %2
  %8 = load i32, ptr %6, align 4
  %9 = load i32, ptr %5, align 4
  %10 = sub nsw i32 %9, 16
  %11 = icmp sle i32 %8, %10
  br i1 %11, label %12, label %25

12:                                               ; preds = %7
  %13 = load i64, ptr %4, align 8
  %14 = load i32, ptr %6, align 4
  %15 = zext i32 %14 to i64
  %16 = shl i64 65535, %15
  %17 = xor i64 %16, -1
  %18 = and i64 %13, %17
  %19 = icmp eq i64 %18, 0
  br i1 %19, label %20, label %21

20:                                               ; preds = %12
  store i1 true, ptr %3, align 1
  br label %26

21:                                               ; preds = %12
  br label %22

22:                                               ; preds = %21
  %23 = load i32, ptr %6, align 4
  %24 = add nsw i32 %23, 16
  store i32 %24, ptr %6, align 4
  br label %7, !llvm.loop !17

25:                                               ; preds = %7
  store i1 false, ptr %3, align 1
  br label %26

26:                                               ; preds = %25, %20
  %27 = load i1, ptr %3, align 1
  ret i1 %27
}

; Function Attrs: mustprogress nounwind uwtable
define internal noundef zeroext i1 @_ZN4llvm10AArch64_AML14isMOVNMovAliasEmii(i64 noundef %0, i32 noundef %1, i32 noundef %2) #0 {
  %4 = alloca i1, align 1
  %5 = alloca i64, align 8
  %6 = alloca i32, align 4
  %7 = alloca i32, align 4
  store i64 %0, ptr %5, align 8
  store i32 %1, ptr %6, align 4
  store i32 %2, ptr %7, align 4
  %8 = load i64, ptr %5, align 8
  %9 = load i32, ptr %7, align 4
  %10 = call noundef zeroext i1 @_ZN4llvm10AArch64_AML17isAnyMOVZMovAliasEmi(i64 noundef %8, i32 noundef %9)
  br i1 %10, label %11, label %12

11:                                               ; preds = %3
  store i1 false, ptr %4, align 1
  br label %25

12:                                               ; preds = %3
  %13 = load i64, ptr %5, align 8
  %14 = xor i64 %13, -1
  store i64 %14, ptr %5, align 8
  %15 = load i32, ptr %7, align 4
  %16 = icmp eq i32 %15, 32
  br i1 %16, label %17, label %20

17:                                               ; preds = %12
  %18 = load i64, ptr %5, align 8
  %19 = and i64 %18, 4294967295
  store i64 %19, ptr %5, align 8
  br label %20

20:                                               ; preds = %17, %12
  %21 = load i64, ptr %5, align 8
  %22 = load i32, ptr %6, align 4
  %23 = load i32, ptr %7, align 4
  %24 = call noundef zeroext i1 @_ZN4llvm10AArch64_AML14isMOVZMovAliasEmii(i64 noundef %21, i32 noundef %22, i32 noundef %23)
  store i1 %24, ptr %4, align 1
  br label %25

25:                                               ; preds = %20, %11
  %26 = load i1, ptr %4, align 1
  ret i1 %26
}