; Function Attrs: mustprogress nofree norecurse nosync nounwind willreturn memory(none) uwtable
define internal fastcc noundef zeroext i1 @_ZN4llvm10AArch64_AML14isMOVNMovAliasEmii(i64 noundef %0, i32 noundef %1, i32 noundef %2) unnamed_addr #3 {
  %4 = add nsw i32 %2, -16
  %.not6.i = icmp sgt i32 %2, 15
  br i1 %.not6.i, label %.lr.ph.i, label %.thread

.thread:                                          ; preds = %3
  %5 = xor i64 %0, -1
  br label %.split

6:                                                ; preds = %.lr.ph.i
  %indvars.iv.next.i = add nuw nsw i64 %indvars.iv.i, 16
  %7 = trunc nuw i64 %indvars.iv.next.i to i32
  %.not.not.i = icmp slt i32 %4, %7
  br i1 %.not.not.i, label %12, label %.lr.ph.i, !llvm.loop !252

.lr.ph.i:                                         ; preds = %3, %6
  %indvars.iv.i = phi i64 [ %indvars.iv.next.i, %6 ], [ 0, %3 ]
  %8 = shl i64 65535, %indvars.iv.i
  %9 = xor i64 %8, -1
  %10 = and i64 %0, %9
  %11 = icmp eq i64 %10, 0
  br i1 %11, label %_ZN4llvm10AArch64_AML17isAnyMOVZMovAliasEmi.exit, label %6

12:                                               ; preds = %6
  %13 = xor i64 %0, -1
  %14 = icmp eq i32 %2, 32
  br i1 %14, label %.split10, label %.split

.split:                                           ; preds = %.thread, %12
  %15 = phi i64 [ %5, %.thread ], [ %13, %12 ]
  %16 = icmp eq i64 %15, 0
  %17 = icmp ne i32 %1, 0
  %or.cond.i = and i1 %17, %16
  br i1 %or.cond.i, label %_ZN4llvm10AArch64_AML17isAnyMOVZMovAliasEmi.exit, label %18

18:                                               ; preds = %.split
  %19 = zext nneg i32 %1 to i64
  %20 = shl i64 65535, %19
  %21 = xor i64 %20, -1
  %22 = and i64 %15, %21
  %23 = icmp eq i64 %22, 0
  br label %_ZN4llvm10AArch64_AML17isAnyMOVZMovAliasEmi.exit

.split10:                                         ; preds = %12
  %24 = and i64 %13, 4294967295
  %25 = icmp eq i64 %24, 0
  %26 = icmp ne i32 %1, 0
  %or.cond.i13 = and i1 %26, %25
  br i1 %or.cond.i13, label %_ZN4llvm10AArch64_AML17isAnyMOVZMovAliasEmi.exit, label %27

27:                                               ; preds = %.split10
  %28 = zext nneg i32 %1 to i64
  %29 = shl i64 65535, %28
  %30 = xor i64 %29, -1
  %31 = and i64 %24, %30
  %32 = icmp eq i64 %31, 0
  br label %_ZN4llvm10AArch64_AML17isAnyMOVZMovAliasEmi.exit

_ZN4llvm10AArch64_AML17isAnyMOVZMovAliasEmi.exit: ; preds = %.lr.ph.i, %27, %.split10, %18, %.split
  %.0 = phi i1 [ %23, %18 ], [ false, %.split ], [ %32, %27 ], [ false, %.split10 ], [ false, %.lr.ph.i ]
  ret i1 %.0
}